target datalayout = "e-m:e-p270:32:32-p271:32:32-p272:64:64-i64:64-i128:128-f80:128-n8:16:32:64-S128"
target triple = "x86_64-unknown-linux-gnu"

; Function Attrs: mustprogress nounwind uwtable
define noundef i32 @_ZN6icu_7510UnicodeSet12nextCapacityEi(i32 noundef %minCapacity) #0 align 2 {
entry:
  %retval = alloca i32, align 4
  %minCapacity.addr = alloca i32, align 4
  %newCapacity = alloca i32, align 4
  store i32 %minCapacity, ptr %minCapacity.addr, align 4
  %0 = load i32, ptr %minCapacity.addr, align 4
  %cmp = icmp slt i32 %0, 25
  br i1 %cmp, label %if.then, label %if.else

if.then:                                          ; preds = %entry
  %1 = load i32, ptr %minCapacity.addr, align 4
  %add = add nsw i32 %1, 25
  store i32 %add, ptr %retval, align 4
  br label %return

if.else:                                          ; preds = %entry
  %2 = load i32, ptr %minCapacity.addr, align 4
  %cmp1 = icmp sle i32 %2, 2500
  br i1 %cmp1, label %if.then2, label %if.else3

if.then2:                                         ; preds = %if.else
  %3 = load i32, ptr %minCapacity.addr, align 4
  %mul = mul nsw i32 5, %3
  store i32 %mul, ptr %retval, align 4
  br label %return

if.else3:                                         ; preds = %if.else
  %4 = load i32, ptr %minCapacity.addr, align 4
  %mul4 = mul nsw i32 2, %4
  store i32 %mul4, ptr %newCapacity, align 4
  %5 = load i32, ptr %newCapacity, align 4
  %cmp5 = icmp sgt i32 %5, 1114113
  br i1 %cmp5, label %if.then6, label %if.end

if.then6:                                         ; preds = %if.else3
  store i32 1114113, ptr %newCapacity, align 4
  br label %if.end

if.end:                                           ; preds = %if.then6, %if.else3
  %6 = load i32, ptr %newCapacity, align 4
  store i32 %6, ptr %retval, align 4
  br label %return

return:                                           ; preds = %if.end, %if.then2, %if.then
  %7 = load i32, ptr %retval, align 4
  ret i32 %7
}