; Function Attrs: mustprogress nofree norecurse nosync nounwind willreturn memory(none) uwtable
define noundef i32 @_ZN6icu_7510UnicodeSet12nextCapacityEi(i32 noundef %minCapacity) local_unnamed_addr #6 align 2 {
entry:
  %cmp = icmp slt i32 %minCapacity, 25
  br i1 %cmp, label %if.then, label %if.else

if.then:                                          ; preds = %entry
  %add = add nsw i32 %minCapacity, 25
  br label %return

if.else:                                          ; preds = %entry
  %cmp1 = icmp ult i32 %minCapacity, 2501
  br i1 %cmp1, label %if.then2, label %if.else3

if.then2:                                         ; preds = %if.else
  %mul = mul nuw nsw i32 %minCapacity, 5
  br label %return

if.else3:                                         ; preds = %if.else
  %mul4 = shl nuw nsw i32 %minCapacity, 1
  %spec.store.select = tail call i32 @llvm.umin.i32(i32 %mul4, i32 1114113)
  br label %return

return:                                           ; preds = %if.else3, %if.then2, %if.then
  %retval.0 = phi i32 [ %add, %if.then ], [ %mul, %if.then2 ], [ %spec.store.select, %if.else3 ]
  ret i32 %retval.0
}